target datalayout = "e-m:e-p270:32:32-p271:32:32-p272:64:64-i64:64-i128:128-f80:128-n8:16:32:64-S128"
target triple = "x86_64-pc-linux-gnu"

%struct.Ssw_Cla_t_ = type { ptr, ptr, ptr, i32, i32, i32, i32, ptr, ptr, ptr, ptr, ptr, ptr, ptr, ptr, ptr }
%struct.Aig_Obj_t_ = type { %union.anon, ptr, ptr, i64, i32, i32, %union.anon.0 }
%union.anon = type { ptr }
%union.anon.0 = type { ptr }

@.str = private unnamed_addr constant [3 x i8] c"{ \00", align 1
@.str.1 = private unnamed_addr constant [14 x i8] c"%d(%d,%d,%d) \00", align 1
@.str.2 = private unnamed_addr constant [3 x i8] c"}\0A\00", align 1

; Function Attrs: nounwind uwtable
define void @Ssw_ClassesPrintOne(ptr noundef %0, ptr noundef %1) #0 {
  %3 = alloca ptr, align 8
  %4 = alloca ptr, align 8
  %5 = alloca ptr, align 8
  %6 = alloca i32, align 4
  store ptr %0, ptr %3, align 8, !tbaa !8
  store ptr %1, ptr %4, align 8, !tbaa !48
  call void @llvm.lifetime.start.p0(i64 8, ptr %5) #11
  call void @llvm.lifetime.start.p0(i64 4, ptr %6) #11
  call void (i32, ptr, ...) @Abc_Print(i32 noundef 1, ptr noundef @.str)
  store i32 0, ptr %6, align 4, !tbaa !33
  br label %7

7:                                                ; preds = %56, %2
  %8 = load i32, ptr %6, align 4, !tbaa !33
  %9 = load ptr, ptr %3, align 8, !tbaa !8
  %10 = getelementptr inbounds nuw %struct.Ssw_Cla_t_, ptr %9, i32 0, i32 2
  %11 = load ptr, ptr %10, align 8, !tbaa !18
  %12 = load ptr, ptr %4, align 8, !tbaa !48
  %13 = getelementptr inbounds nuw %struct.Aig_Obj_t_, ptr %12, i32 0, i32 5
  %14 = load i32, ptr %13, align 4, !tbaa !50
  %15 = sext i32 %14 to i64
  %16 = getelementptr inbounds i32, ptr %11, i64 %15
  %17 = load i32, ptr %16, align 4, !tbaa !33
  %18 = icmp slt i32 %8, %17
  br i1 %18, label %19, label %59

19:                                               ; preds = %7
  %20 = load ptr, ptr %3, align 8, !tbaa !8
  %21 = getelementptr inbounds nuw %struct.Ssw_Cla_t_, ptr %20, i32 0, i32 1
  %22 = load ptr, ptr %21, align 8, !tbaa !17
  %23 = load ptr, ptr %4, align 8, !tbaa !48
  %24 = getelementptr inbounds nuw %struct.Aig_Obj_t_, ptr %23, i32 0, i32 5
  %25 = load i32, ptr %24, align 4, !tbaa !50
  %26 = sext i32 %25 to i64
  %27 = getelementptr inbounds ptr, ptr %22, i64 %26
  %28 = load ptr, ptr %27, align 8, !tbaa !51
  %29 = load i32, ptr %6, align 4, !tbaa !33
  %30 = sext i32 %29 to i64
  %31 = getelementptr inbounds ptr, ptr %28, i64 %30
  %32 = load ptr, ptr %31, align 8, !tbaa !48
  store ptr %32, ptr %5, align 8, !tbaa !48
  %33 = icmp eq ptr %32, null
  br i1 %33, label %34, label %35

34:                                               ; preds = %19
  br label %55

35:                                               ; preds = %19
  %36 = load ptr, ptr %5, align 8, !tbaa !48
  %37 = getelementptr inbounds nuw %struct.Aig_Obj_t_, ptr %36, i32 0, i32 5
  %38 = load i32, ptr %37, align 4, !tbaa !50
  %39 = load ptr, ptr %5, align 8, !tbaa !48
  %40 = getelementptr inbounds nuw %struct.Aig_Obj_t_, ptr %39, i32 0, i32 3
  %41 = load i64, ptr %40, align 8
  %42 = lshr i64 %41, 32
  %43 = and i64 %42, 16777215
  %44 = trunc i64 %43 to i32
  %45 = load ptr, ptr %3, align 8, !tbaa !8
  %46 = getelementptr inbounds nuw %struct.Ssw_Cla_t_, ptr %45, i32 0, i32 0
  %47 = load ptr, ptr %46, align 8, !tbaa !10
  %48 = load ptr, ptr %5, align 8, !tbaa !48
  %49 = call i32 @Aig_SupportSize(ptr noundef %47, ptr noundef %48)
  %50 = load ptr, ptr %3, align 8, !tbaa !8
  %51 = getelementptr inbounds nuw %struct.Ssw_Cla_t_, ptr %50, i32 0, i32 0
  %52 = load ptr, ptr %51, align 8, !tbaa !10
  %53 = load ptr, ptr %5, align 8, !tbaa !48
  %54 = call i32 @Aig_NodeMffcSupp(ptr noundef %52, ptr noundef %53, i32 noundef 0, ptr noundef null)
  call void (i32, ptr, ...) @Abc_Print(i32 noundef 1, ptr noundef @.str.1, i32 noundef %38, i32 noundef %44, i32 noundef %49, i32 noundef %54)
  br label %55

55:                                               ; preds = %35, %34
  br label %56

56:                                               ; preds = %55
  %57 = load i32, ptr %6, align 4, !tbaa !33
  %58 = add nsw i32 %57, 1
  store i32 %58, ptr %6, align 4, !tbaa !33
  br label %7, !llvm.loop !57

59:                                               ; preds = %7
  call void (i32, ptr, ...) @Abc_Print(i32 noundef 1, ptr noundef @.str.2)
  call void @llvm.lifetime.end.p0(i64 4, ptr %6) #11
  call void @llvm.lifetime.end.p0(i64 8, ptr %5) #11
  ret void
}