; Function Attrs: nounwind uwtable
define void @Ssw_ClassesPrintOne(ptr noundef readonly captures(none) %0, ptr noundef readonly captures(none) %1) local_unnamed_addr #0 {
  tail call void (i32, ptr, ...) @Abc_Print(i32 poison, ptr noundef nonnull @.str)
  %3 = getelementptr inbounds nuw i8, ptr %0, i64 16
  %4 = getelementptr inbounds nuw i8, ptr %1, i64 36
  %5 = load ptr, ptr %3, align 8, !tbaa !27
  %6 = load i32, ptr %4, align 4, !tbaa !42
  %7 = sext i32 %6 to i64
  %8 = getelementptr inbounds i32, ptr %5, i64 %7
  %9 = load i32, ptr %8, align 4, !tbaa !44
  %10 = icmp sgt i32 %9, 0
  br i1 %10, label %.lr.ph, label %._crit_edge

.lr.ph:                                           ; preds = %2
  %11 = getelementptr inbounds nuw i8, ptr %0, i64 8
  br label %12

12:                                               ; preds = %.lr.ph, %34
  %13 = phi i32 [ %6, %.lr.ph ], [ %35, %34 ]
  %14 = phi ptr [ %5, %.lr.ph ], [ %36, %34 ]
  %indvars.iv = phi i64 [ 0, %.lr.ph ], [ %indvars.iv.next, %34 ]
  %15 = phi i64 [ %7, %.lr.ph ], [ %37, %34 ]
  %16 = load ptr, ptr %11, align 8, !tbaa !26
  %17 = getelementptr inbounds ptr, ptr %16, i64 %15
  %18 = load ptr, ptr %17, align 8, !tbaa !43
  %19 = getelementptr inbounds nuw ptr, ptr %18, i64 %indvars.iv
  %20 = load ptr, ptr %19, align 8, !tbaa !45
  %21 = icmp eq ptr %20, null
  br i1 %21, label %34, label %22

22:                                               ; preds = %12
  %23 = getelementptr inbounds nuw i8, ptr %20, i64 36
  %24 = load i32, ptr %23, align 4, !tbaa !42
  %25 = getelementptr inbounds nuw i8, ptr %20, i64 24
  %26 = load i64, ptr %25, align 8
  %27 = lshr i64 %26, 32
  %28 = trunc nuw i64 %27 to i32
  %29 = and i32 %28, 16777215
  %30 = load ptr, ptr %0, align 8, !tbaa !3
  %31 = tail call i32 @Aig_SupportSize(ptr noundef %30, ptr noundef nonnull %20) #23
  %32 = load ptr, ptr %0, align 8, !tbaa !3
  %33 = tail call i32 @Aig_NodeMffcSupp(ptr noundef %32, ptr noundef nonnull %20, i32 noundef 0, ptr noundef null) #23
  tail call void (i32, ptr, ...) @Abc_Print(i32 poison, ptr noundef nonnull @.str.1, i32 noundef %24, i32 noundef %29, i32 noundef %31, i32 noundef %33)
  %.pre = load ptr, ptr %3, align 8, !tbaa !27
  %.pre15 = load i32, ptr %4, align 4, !tbaa !42
  br label %34

34:                                               ; preds = %22, %12
  %35 = phi i32 [ %.pre15, %22 ], [ %13, %12 ]
  %36 = phi ptr [ %.pre, %22 ], [ %14, %12 ]
  %indvars.iv.next = add nuw nsw i64 %indvars.iv, 1
  %37 = sext i32 %35 to i64
  %38 = getelementptr inbounds i32, ptr %36, i64 %37
  %39 = load i32, ptr %38, align 4, !tbaa !44
  %40 = sext i32 %39 to i64
  %41 = icmp slt i64 %indvars.iv.next, %40
  br i1 %41, label %12, label %._crit_edge, !llvm.loop !49

._crit_edge:                                      ; preds = %34, %2
  tail call void (i32, ptr, ...) @Abc_Print(i32 poison, ptr noundef nonnull @.str.2)
  ret void
}